; Function Attrs: mustprogress nounwind uwtable
define dso_local noundef ptr @_ZN4llvm9MDBuilder15createLLVMStatsENS_8ArrayRefISt4pairINS_9StringRefEmEEE(ptr nocapture noundef nonnull readonly align 8 dereferenceable(8) %0, ptr nocapture readonly %1, i64 %2) local_unnamed_addr #0 align 2 {
  %4 = alloca %"class.llvm::SmallVector", align 8
  %5 = load ptr, ptr %0, align 8
  %6 = tail call noundef ptr @_ZN4llvm4Type10getInt64TyERNS_11LLVMContextE(ptr noundef nonnull align 8 dereferenceable(8) %5) #8
  %7 = shl i64 %2, 1
  %8 = getelementptr inbounds i8, ptr %4, i64 16
  call void @_ZN4llvm15SmallVectorBaseIjEC2EPvm(ptr noundef nonnull align 8 dereferenceable(16) %4, ptr noundef nonnull %8, i64 noundef 4) #8
  call void @_ZN4llvm15SmallVectorImplIPNS_8MetadataEE10resizeImplILb0EEEvm(ptr noundef nonnull align 8 dereferenceable(16) %4, i64 noundef %7)
  %.not = icmp eq i64 %2, 0
  br i1 %.not, label %._crit_edge, label %.lr.ph

.lr.ph:                                           ; preds = %3, %.lr.ph
  %.010 = phi i64 [ %22, %.lr.ph ], [ 0, %3 ]
  %9 = getelementptr inbounds %"struct.std::pair.35", ptr %1, i64 %.010
  %.sroa.0.0.copyload = load ptr, ptr %9, align 8
  %.sroa.2.0..sroa_idx = getelementptr inbounds i8, ptr %9, i64 8
  %.sroa.2.0.copyload = load i64, ptr %.sroa.2.0..sroa_idx, align 8
  %10 = load ptr, ptr %0, align 8
  %11 = call noundef ptr @_ZN4llvm8MDString3getERNS_11LLVMContextENS_9StringRefE(ptr noundef nonnull align 8 dereferenceable(8) %10, ptr %.sroa.0.0.copyload, i64 %.sroa.2.0.copyload) #8
  %12 = shl i64 %.010, 1
  %13 = load ptr, ptr %4, align 8
  %14 = getelementptr inbounds ptr, ptr %13, i64 %12
  store ptr %11, ptr %14, align 8
  %15 = getelementptr inbounds nuw i8, ptr %9, i64 16
  %16 = load i64, ptr %15, align 8
  %17 = call noundef ptr @_ZN4llvm11ConstantInt3getEPNS_11IntegerTypeEmb(ptr noundef %6, i64 noundef %16, i1 noundef zeroext false) #8
  %18 = call noundef ptr @_ZN4llvm15ValueAsMetadata3getEPNS_5ValueE(ptr noundef %17) #8
  %19 = or disjoint i64 %12, 1
  %20 = load ptr, ptr %4, align 8
  %21 = getelementptr inbounds ptr, ptr %20, i64 %19
  store ptr %18, ptr %21, align 8
  %22 = add nuw i64 %.010, 1
  %exitcond.not = icmp eq i64 %22, %2
  br i1 %exitcond.not, label %._crit_edge, label %.lr.ph, !llvm.loop !11

._crit_edge:                                      ; preds = %.lr.ph, %3
  %23 = load ptr, ptr %0, align 8
  %24 = load ptr, ptr %4, align 8
  %25 = call noundef i64 @_ZNK4llvm15SmallVectorBaseIjE4sizeEv(ptr noundef nonnull align 8 dereferenceable(16) %4) #8
  %26 = call noundef ptr @_ZN4llvm7MDTuple7getImplERNS_11LLVMContextENS_8ArrayRefIPNS_8MetadataEEENS4_11StorageTypeEb(ptr noundef nonnull align 8 dereferenceable(8) %23, ptr %24, i64 %25, i32 noundef 0, i1 noundef zeroext true) #8
  %27 = call noundef i64 @_ZNK4llvm15SmallVectorBaseIjE4sizeEv(ptr noundef nonnull align 8 dereferenceable(16) %4) #8
  %28 = load ptr, ptr %4, align 8
  %29 = icmp eq ptr %28, %8
  br i1 %29, label %_ZN4llvm11SmallVectorIPNS_8MetadataELj4EED2Ev.exit, label %30

30:                                               ; preds = %._crit_edge
  call void @free(ptr noundef %28) #8
  br label %_ZN4llvm11SmallVectorIPNS_8MetadataELj4EED2Ev.exit

_ZN4llvm11SmallVectorIPNS_8MetadataELj4EED2Ev.exit: ; preds = %._crit_edge, %30
  ret ptr %26
}